; Function Attrs: mustprogress nofree norecurse nosync nounwind willreturn memory(argmem: readwrite) uwtable
define void @_ZN5arrow2io16MockOutputStream5WriteEPKvl(ptr noalias nocapture writeonly sret(%"class.arrow::Status") align 8 %agg.result, ptr nocapture noundef nonnull align 8 dereferenceable(17) %this, ptr nocapture readnone %data, i64 noundef %nbytes) unnamed_addr #14 align 2 {
entry:
  %extent_bytes_written_ = getelementptr inbounds i8, ptr %this, i64 8
  %0 = load i64, ptr %extent_bytes_written_, align 8
  %add = add nsw i64 %0, %nbytes
  store i64 %add, ptr %extent_bytes_written_, align 8
  store ptr null, ptr %agg.result, align 8, !alias.scope !73
  ret void
}